(dp0
S'tearRate'
p1
(dp2
S'reduced'
p3
S'no lenses'
p4
sS'normal'
p5
(dp6
S'astigmatic'
p7
(dp8
S'yes'
p9
(dp10
S'age'
p11
(dp12
S'pre'
p13
(dp14
S'prescript'
p15
(dp16
S'hyper'
p17
S'no lenses'
p18
sS'myope'
p19
S'hard'
p20
sssS'young'
p21
S'hard'
p22
sssS'no'
p23
(dp24
g11
(dp25
S'pre'
p26
S'soft'
p27
sS'presbyopic'
p28
S'no lenses'
p29
sS'young'
p30
S'soft'
p31
ssssss.